target datalayout = "e-m:e-p270:32:32-p271:32:32-p272:64:64-i64:64-i128:128-f80:128-n8:16:32:64-S128"
target triple = "x86_64-pc-linux-gnu"

%struct._zend_phpdbg_globals = type { [11 x %struct._zend_array], %struct._zend_array, %struct._zend_array, ptr, ptr, %struct.phpdbg_frame_t, i32, ptr, %struct.phpdbg_lexer_data, ptr, %struct.sigaction, i32, i64, %struct.phpdbg_btree, %struct.phpdbg_btree, %struct._zend_array, %struct._zend_array, %struct._zend_array, %struct._zend_array, ptr, ptr, i8, ptr, ptr, ptr, i64, ptr, %struct._zval_struct, i32, i32, i8, i8, ptr, ptr, ptr, %struct._zend_array, ptr, ptr, ptr, [3 x %struct.anon.8], ptr, %struct.anon.9, i64, [2 x ptr], [3 x ptr], ptr, i8, ptr, ptr, [500 x i8], i32, %struct.phpdbg_signal_safe_mem, ptr, i64, ptr, i64 }
%struct.phpdbg_frame_t = type { i32, ptr, ptr }
%struct.phpdbg_lexer_data = type { i32, ptr, ptr, ptr, ptr, i32 }
%struct.sigaction = type { %union.anon.2, %struct.__sigset_t, i32, ptr }
%union.anon.2 = type { ptr }
%struct.__sigset_t = type { [16 x i64] }
%struct.phpdbg_btree = type { i64, i64, i8, ptr }
%struct._zval_struct = type { %union._zend_value, %union.anon.4, %union.anon.7 }
%union._zend_value = type { i64 }
%union.anon.4 = type { i32 }
%union.anon.7 = type { i32 }
%struct._zend_array = type { %struct._zend_refcounted_h, %union.anon.0, i32, %union.anon.1, i32, i32, i32, i32, i64, ptr }
%struct._zend_refcounted_h = type { i32, %union.anon }
%union.anon = type { i32 }
%union.anon.0 = type { i32 }
%union.anon.1 = type { ptr }
%struct.anon.8 = type { i32 }
%struct.anon.9 = type { i8, i32, i32, ptr, i32 }
%struct.phpdbg_signal_safe_mem = type { ptr, i8, ptr, ptr }
%struct._phpdbg_color_t = type { ptr, i64, [12 x i8] }

@phpdbg_globals = external global %struct._zend_phpdbg_globals, align 8
@.str.6 = private unnamed_addr constant [47 x i8] c"prompt contains unsupported unicode characters\00", align 1
@.str.7 = private unnamed_addr constant [13 x i8] c"\1B[%sm%s\1B[0m \00", align 1
@.str.8 = private unnamed_addr constant [4 x i8] c"%s \00", align 1

; Function Attrs: nounwind uwtable
define ptr @phpdbg_get_prompt() #0 {
  %1 = alloca ptr, align 8
  %2 = alloca i32, align 4
  %3 = alloca i32, align 4
  %4 = alloca i8, align 1
  %5 = alloca i32, align 4
  %6 = alloca i32, align 4
  %7 = load ptr, ptr getelementptr inbounds (%struct._zend_phpdbg_globals, ptr @phpdbg_globals, i32 0, i32 43, i64 1), align 8
  %8 = icmp ne ptr %7, null
  br i1 %8, label %9, label %11

9:                                                ; preds = %0
  %10 = load ptr, ptr getelementptr inbounds (%struct._zend_phpdbg_globals, ptr @phpdbg_globals, i32 0, i32 43, i64 1), align 8
  store ptr %10, ptr %1, align 8
  br label %55

11:                                               ; preds = %0
  store i32 0, ptr %2, align 4
  %12 = load ptr, ptr getelementptr inbounds (%struct._zend_phpdbg_globals, ptr @phpdbg_globals, i32 0, i32 43), align 8
  %13 = call i64 @strlen(ptr noundef %12) #12
  %14 = trunc i64 %13 to i32
  store i32 %14, ptr %3, align 4
  store i8 0, ptr %4, align 1
  br label %15

15:                                               ; preds = %37, %11
  %16 = load i32, ptr %2, align 4
  %17 = load i32, ptr %3, align 4
  %18 = icmp ult i32 %16, %17
  br i1 %18, label %19, label %40

19:                                               ; preds = %15
  %20 = load ptr, ptr getelementptr inbounds (%struct._zend_phpdbg_globals, ptr @phpdbg_globals, i32 0, i32 43), align 8
  %21 = load i32, ptr %2, align 4
  %22 = zext i32 %21 to i64
  %23 = getelementptr inbounds i8, ptr %20, i64 %22
  %24 = load i8, ptr %23, align 1
  %25 = sext i8 %24 to i32
  %26 = and i32 %25, 128
  %27 = icmp ne i32 %26, 0
  br i1 %27, label %28, label %37

28:                                               ; preds = %19
  %29 = load ptr, ptr getelementptr inbounds (%struct._zend_phpdbg_globals, ptr @phpdbg_globals, i32 0, i32 43), align 8
  %30 = load i32, ptr %2, align 4
  %31 = zext i32 %30 to i64
  %32 = getelementptr inbounds i8, ptr %29, i64 %31
  store i8 63, ptr %32, align 1
  %33 = load i8, ptr %4, align 1
  %34 = trunc i8 %33 to i1
  br i1 %34, label %36, label %35

35:                                               ; preds = %28
  call void (i32, ptr, ...) @zend_error(i32 noundef 2, ptr noundef @.str.6)
  store i8 1, ptr %4, align 1
  br label %36

36:                                               ; preds = %35, %28
  br label %37

37:                                               ; preds = %36, %19
  %38 = load i32, ptr %2, align 4
  %39 = add i32 %38, 1
  store i32 %39, ptr %2, align 4
  br label %15

40:                                               ; preds = %15
  %41 = load i64, ptr getelementptr inbounds (%struct._zend_phpdbg_globals, ptr @phpdbg_globals, i32 0, i32 53), align 8
  %42 = and i64 %41, 131072
  %43 = icmp ne i64 %42, 0
  br i1 %43, label %44, label %50

44:                                               ; preds = %40
  %45 = load ptr, ptr getelementptr inbounds (%struct._zend_phpdbg_globals, ptr @phpdbg_globals, i32 0, i32 44), align 8
  %46 = getelementptr inbounds %struct._phpdbg_color_t, ptr %45, i32 0, i32 2
  %47 = getelementptr inbounds [12 x i8], ptr %46, i64 0, i64 0
  %48 = load ptr, ptr getelementptr inbounds (%struct._zend_phpdbg_globals, ptr @phpdbg_globals, i32 0, i32 43), align 8
  %49 = call i32 (ptr, ptr, ...) @asprintf(ptr noundef getelementptr inbounds (%struct._zend_phpdbg_globals, ptr @phpdbg_globals, i32 0, i32 43, i64 1), ptr noundef @.str.7, ptr noundef %47, ptr noundef %48) #13
  store i32 %49, ptr %5, align 4
  br label %53

50:                                               ; preds = %40
  %51 = load ptr, ptr getelementptr inbounds (%struct._zend_phpdbg_globals, ptr @phpdbg_globals, i32 0, i32 43), align 8
  %52 = call i32 (ptr, ptr, ...) @asprintf(ptr noundef getelementptr inbounds (%struct._zend_phpdbg_globals, ptr @phpdbg_globals, i32 0, i32 43, i64 1), ptr noundef @.str.8, ptr noundef %51) #13
  store i32 %52, ptr %6, align 4
  br label %53

53:                                               ; preds = %50, %44
  %54 = load ptr, ptr getelementptr inbounds (%struct._zend_phpdbg_globals, ptr @phpdbg_globals, i32 0, i32 43, i64 1), align 8
  store ptr %54, ptr %1, align 8
  br label %55

55:                                               ; preds = %53, %9
  %56 = load ptr, ptr %1, align 8
  ret ptr %56
}