; Function Attrs: nounwind uwtable
define ptr @phpdbg_get_prompt() local_unnamed_addr #3 {
  %1 = load ptr, ptr getelementptr inbounds (%struct._zend_phpdbg_globals, ptr @phpdbg_globals, i64 0, i32 43, i64 1), align 8
  %.not = icmp eq ptr %1, null
  br i1 %.not, label %2, label %25

2:                                                ; preds = %0
  %3 = load ptr, ptr getelementptr inbounds (%struct._zend_phpdbg_globals, ptr @phpdbg_globals, i64 0, i32 43), align 8
  %4 = tail call i64 @strlen(ptr noundef nonnull dereferenceable(1) %3) #24
  %5 = and i64 %4, 4294967295
  %.not14 = icmp eq i64 %5, 0
  br i1 %.not14, label %._crit_edge, label %.lr.ph.preheader

.lr.ph.preheader:                                 ; preds = %2
  %wide.trip.count = and i64 %4, 4294967295
  br label %.lr.ph

.lr.ph:                                           ; preds = %.lr.ph.preheader, %12
  %indvars.iv = phi i64 [ 0, %.lr.ph.preheader ], [ %indvars.iv.next, %12 ]
  %.0712 = phi i8 [ 0, %.lr.ph.preheader ], [ %.1, %12 ]
  %6 = load ptr, ptr getelementptr inbounds (%struct._zend_phpdbg_globals, ptr @phpdbg_globals, i64 0, i32 43), align 8
  %7 = getelementptr inbounds i8, ptr %6, i64 %indvars.iv
  %8 = load i8, ptr %7, align 1
  %.not10 = icmp sgt i8 %8, -1
  br i1 %.not10, label %12, label %9

9:                                                ; preds = %.lr.ph
  store i8 63, ptr %7, align 1
  %10 = and i8 %.0712, 1
  %.not11 = icmp eq i8 %10, 0
  br i1 %.not11, label %11, label %12

11:                                               ; preds = %9
  tail call void (i32, ptr, ...) @zend_error(i32 noundef 2, ptr noundef nonnull @.str.6) #25
  br label %12

12:                                               ; preds = %9, %11, %.lr.ph
  %.1 = phi i8 [ %.0712, %9 ], [ 1, %11 ], [ %.0712, %.lr.ph ]
  %indvars.iv.next = add nuw nsw i64 %indvars.iv, 1
  %exitcond.not = icmp eq i64 %indvars.iv.next, %wide.trip.count
  br i1 %exitcond.not, label %._crit_edge, label %.lr.ph

._crit_edge:                                      ; preds = %12, %2
  %13 = load i64, ptr getelementptr inbounds (%struct._zend_phpdbg_globals, ptr @phpdbg_globals, i64 0, i32 53), align 8
  %14 = and i64 %13, 131072
  %.not9 = icmp eq i64 %14, 0
  br i1 %.not9, label %20, label %15

15:                                               ; preds = %._crit_edge
  %16 = load ptr, ptr getelementptr inbounds (%struct._zend_phpdbg_globals, ptr @phpdbg_globals, i64 0, i32 44), align 8
  %17 = getelementptr inbounds i8, ptr %16, i64 16
  %18 = load ptr, ptr getelementptr inbounds (%struct._zend_phpdbg_globals, ptr @phpdbg_globals, i64 0, i32 43), align 8
  %19 = tail call i32 (ptr, ptr, ...) @asprintf(ptr noundef nonnull getelementptr inbounds (%struct._zend_phpdbg_globals, ptr @phpdbg_globals, i64 0, i32 43, i64 1), ptr noundef nonnull @.str.7, ptr noundef nonnull %17, ptr noundef %18) #25
  br label %23

20:                                               ; preds = %._crit_edge
  %21 = load ptr, ptr getelementptr inbounds (%struct._zend_phpdbg_globals, ptr @phpdbg_globals, i64 0, i32 43), align 8
  %22 = tail call i32 (ptr, ptr, ...) @asprintf(ptr noundef nonnull getelementptr inbounds (%struct._zend_phpdbg_globals, ptr @phpdbg_globals, i64 0, i32 43, i64 1), ptr noundef nonnull @.str.8, ptr noundef %21) #25
  br label %23

23:                                               ; preds = %20, %15
  %24 = load ptr, ptr getelementptr inbounds (%struct._zend_phpdbg_globals, ptr @phpdbg_globals, i64 0, i32 43, i64 1), align 8
  br label %25

25:                                               ; preds = %0, %23
  %.0 = phi ptr [ %24, %23 ], [ %1, %0 ]
  ret ptr %.0
}